target datalayout = "e-m:e-p270:32:32-p271:32:32-p272:64:64-i64:64-i128:128-f80:128-n8:16:32:64-S128"
target triple = "x86_64-pc-linux-gnu"

%"class.google::protobuf::internal::LogMessage" = type { i32, ptr, i32, %"class.std::__cxx11::basic_string" }
%"class.std::__cxx11::basic_string" = type { %"struct.std::__cxx11::basic_string<char>::_Alloc_hider", i64, %union.anon }
%"struct.std::__cxx11::basic_string<char>::_Alloc_hider" = type { ptr }
%union.anon = type { i64, [8 x i8] }
%"class.google::protobuf::internal::LogFinisher" = type { i8 }
%"class.google::protobuf::io::FileOutputStream::CopyingFileOutputStream" = type <{ %"class.google::protobuf::io::CopyingOutputStream", i32, i8, i8, [2 x i8], i32, [4 x i8] }>
%"class.google::protobuf::io::CopyingOutputStream" = type { ptr }

@.str = private unnamed_addr constant [51 x i8] c"third_party/protobuf-lite/zero_copy_stream_impl.cc\00", align 1
@.str.2 = private unnamed_addr constant [28 x i8] c"CHECK failed: !is_closed_: \00", align 1

; Function Attrs: mustprogress uwtable
define noundef zeroext i1 @_ZN6google8protobuf2io16FileOutputStream23CopyingFileOutputStream5WriteEPKvi(ptr noundef nonnull align 8 dereferenceable(20) %0, ptr noundef %1, i32 noundef %2) unnamed_addr #4 align 2 personality ptr @__gxx_personality_v0 {
  %4 = alloca i1, align 1
  %5 = alloca ptr, align 8
  %6 = alloca ptr, align 8
  %7 = alloca i32, align 4
  %8 = alloca %"class.google::protobuf::internal::LogMessage", align 8
  %9 = alloca i1, align 1
  %10 = alloca ptr, align 8
  %11 = alloca i32, align 4
  %12 = alloca %"class.google::protobuf::internal::LogFinisher", align 1
  %13 = alloca i32, align 4
  %14 = alloca ptr, align 8
  %15 = alloca i32, align 4
  store ptr %0, ptr %5, align 8
  store ptr %1, ptr %6, align 8
  store i32 %2, ptr %7, align 4
  %16 = load ptr, ptr %5, align 8
  %17 = getelementptr inbounds %"class.google::protobuf::io::FileOutputStream::CopyingFileOutputStream", ptr %16, i32 0, i32 3
  %18 = load i8, ptr %17, align 1
  %19 = trunc i8 %18 to i1
  store i1 false, ptr %9, align 1
  br i1 %19, label %21, label %20

20:                                               ; preds = %3
  br label %25

21:                                               ; preds = %3
  call void @_ZN6google8protobuf8internal10LogMessageC1ENS0_8LogLevelEPKci(ptr noundef nonnull align 8 dereferenceable(56) %8, i32 noundef 3, ptr noundef @.str, i32 noundef 210)
  store i1 true, ptr %9, align 1
  %22 = invoke noundef nonnull align 8 dereferenceable(56) ptr @_ZN6google8protobuf8internal10LogMessagelsEPKc(ptr noundef nonnull align 8 dereferenceable(56) %8, ptr noundef @.str.2)
          to label %23 unwind label %67

23:                                               ; preds = %21
  invoke void @_ZN6google8protobuf8internal11LogFinisheraSERNS1_10LogMessageE(ptr noundef nonnull align 1 dereferenceable(1) %12, ptr noundef nonnull align 8 dereferenceable(56) %22)
          to label %24 unwind label %67

24:                                               ; preds = %23
  br label %25

25:                                               ; preds = %24, %20
  %26 = load i1, ptr %9, align 1
  br i1 %26, label %27, label %28

27:                                               ; preds = %25
  call void @_ZN6google8protobuf8internal10LogMessageD1Ev(ptr noundef nonnull align 8 dereferenceable(56) %8) #3
  br label %28

28:                                               ; preds = %27, %25
  store i32 0, ptr %13, align 4
  %29 = load ptr, ptr %6, align 8
  store ptr %29, ptr %14, align 8
  br label %30

30:                                               ; preds = %75, %28
  %31 = load i32, ptr %13, align 4
  %32 = load i32, ptr %7, align 4
  %33 = icmp slt i32 %31, %32
  br i1 %33, label %34, label %79

34:                                               ; preds = %30
  br label %35

35:                                               ; preds = %55, %34
  %36 = getelementptr inbounds %"class.google::protobuf::io::FileOutputStream::CopyingFileOutputStream", ptr %16, i32 0, i32 1
  %37 = load i32, ptr %36, align 8
  %38 = load ptr, ptr %14, align 8
  %39 = load i32, ptr %13, align 4
  %40 = sext i32 %39 to i64
  %41 = getelementptr inbounds i8, ptr %38, i64 %40
  %42 = load i32, ptr %7, align 4
  %43 = load i32, ptr %13, align 4
  %44 = sub nsw i32 %42, %43
  %45 = sext i32 %44 to i64
  %46 = call i64 @write(i32 noundef %37, ptr noundef %41, i64 noundef %45)
  %47 = trunc i64 %46 to i32
  store i32 %47, ptr %15, align 4
  br label %48

48:                                               ; preds = %35
  %49 = load i32, ptr %15, align 4
  %50 = icmp slt i32 %49, 0
  br i1 %50, label %51, label %55

51:                                               ; preds = %48
  %52 = call ptr @__errno_location() #10
  %53 = load i32, ptr %52, align 4
  %54 = icmp eq i32 %53, 4
  br label %55

55:                                               ; preds = %51, %48
  %56 = phi i1 [ false, %48 ], [ %54, %51 ]
  br i1 %56, label %35, label %57, !llvm.loop !7

57:                                               ; preds = %55
  %58 = load i32, ptr %15, align 4
  %59 = icmp sle i32 %58, 0
  br i1 %59, label %60, label %75

60:                                               ; preds = %57
  %61 = load i32, ptr %15, align 4
  %62 = icmp slt i32 %61, 0
  br i1 %62, label %63, label %74

63:                                               ; preds = %60
  %64 = call ptr @__errno_location() #10
  %65 = load i32, ptr %64, align 4
  %66 = getelementptr inbounds %"class.google::protobuf::io::FileOutputStream::CopyingFileOutputStream", ptr %16, i32 0, i32 5
  store i32 %65, ptr %66, align 8
  br label %74

67:                                               ; preds = %23, %21
  %68 = landingpad { ptr, i32 }
          cleanup
  %69 = extractvalue { ptr, i32 } %68, 0
  store ptr %69, ptr %10, align 8
  %70 = extractvalue { ptr, i32 } %68, 1
  store i32 %70, ptr %11, align 4
  %71 = load i1, ptr %9, align 1
  br i1 %71, label %72, label %73

72:                                               ; preds = %67
  call void @_ZN6google8protobuf8internal10LogMessageD1Ev(ptr noundef nonnull align 8 dereferenceable(56) %8) #3
  br label %73

73:                                               ; preds = %72, %67
  br label %82

74:                                               ; preds = %63, %60
  store i1 false, ptr %4, align 1
  br label %80

75:                                               ; preds = %57
  %76 = load i32, ptr %15, align 4
  %77 = load i32, ptr %13, align 4
  %78 = add nsw i32 %77, %76
  store i32 %78, ptr %13, align 4
  br label %30, !llvm.loop !8

79:                                               ; preds = %30
  store i1 true, ptr %4, align 1
  br label %80

80:                                               ; preds = %79, %74
  %81 = load i1, ptr %4, align 1
  ret i1 %81

82:                                               ; preds = %73
  %83 = load ptr, ptr %10, align 8
  %84 = load i32, ptr %11, align 4
  %85 = insertvalue { ptr, i32 } poison, ptr %83, 0
  %86 = insertvalue { ptr, i32 } %85, i32 %84, 1
  resume { ptr, i32 } %86
}