; Function Attrs: mustprogress uwtable
define noundef zeroext i1 @_ZN6google8protobuf2io16FileOutputStream23CopyingFileOutputStream5WriteEPKvi(ptr nocapture noundef nonnull align 8 dereferenceable(20) %0, ptr nocapture noundef readonly %1, i32 noundef %2) unnamed_addr #3 align 2 personality ptr @__gxx_personality_v0 {
  %4 = alloca %"class.google::protobuf::internal::LogMessage", align 8
  %5 = alloca %"class.google::protobuf::internal::LogFinisher", align 1
  %6 = getelementptr inbounds i8, ptr %0, i64 13
  %7 = load i8, ptr %6, align 1
  %8 = trunc i8 %7 to i1
  br i1 %8, label %9, label %.critedge21

9:                                                ; preds = %3
  call void @_ZN6google8protobuf8internal10LogMessageC1ENS0_8LogLevelEPKci(ptr noundef nonnull align 8 dereferenceable(56) %4, i32 noundef 3, ptr noundef nonnull @.str, i32 noundef 210)
  %10 = invoke noundef nonnull align 8 dereferenceable(56) ptr @_ZN6google8protobuf8internal10LogMessagelsEPKc(ptr noundef nonnull align 8 dereferenceable(56) %4, ptr noundef nonnull @.str.2)
          to label %11 unwind label %31

11:                                               ; preds = %9
  invoke void @_ZN6google8protobuf8internal11LogFinisheraSERNS1_10LogMessageE(ptr noundef nonnull align 1 dereferenceable(1) %5, ptr noundef nonnull align 8 dereferenceable(56) %10)
          to label %12 unwind label %31

12:                                               ; preds = %11
  call void @_ZN6google8protobuf8internal10LogMessageD1Ev(ptr noundef nonnull align 8 dereferenceable(56) %4) #12
  br label %.critedge21

.critedge21:                                      ; preds = %3, %12
  %13 = icmp slt i32 %2, 1
  br i1 %13, label %.loopexit, label %.preheader.lr.ph

.preheader.lr.ph:                                 ; preds = %.critedge21
  %14 = getelementptr inbounds i8, ptr %0, i64 8
  br label %.preheader

.preheader:                                       ; preds = %.critedge, %.preheader.lr.ph
  %.01825 = phi i32 [ 0, %.preheader.lr.ph ], [ %28, %.critedge ]
  %15 = zext nneg i32 %.01825 to i64
  %16 = getelementptr inbounds i8, ptr %1, i64 %15
  %17 = sub nsw i32 %2, %.01825
  %18 = sext i32 %17 to i64
  br label %19

19:                                               ; preds = %.preheader, %24
  %20 = load i32, ptr %14, align 8
  %21 = call i64 @write(i32 noundef %20, ptr noundef %16, i64 noundef %18)
  %22 = trunc i64 %21 to i32
  %23 = icmp slt i32 %22, 0
  br i1 %23, label %24, label %.critedge

24:                                               ; preds = %19
  %25 = tail call ptr @__errno_location() #13
  %26 = load i32, ptr %25, align 4
  %27 = icmp eq i32 %26, 4
  br i1 %27, label %19, label %29, !llvm.loop !7

.critedge:                                        ; preds = %19
  %.not32 = icmp ne i32 %22, 0
  %28 = add nuw nsw i32 %.01825, %22
  %.not = icmp slt i32 %28, %2
  %or.cond = select i1 %.not32, i1 %.not, i1 false
  br i1 %or.cond, label %.preheader, label %.loopexit, !llvm.loop !8

29:                                               ; preds = %24
  %30 = getelementptr inbounds i8, ptr %0, i64 16
  store i32 %26, ptr %30, align 8
  br label %.loopexit

31:                                               ; preds = %11, %9
  %32 = landingpad { ptr, i32 }
          cleanup
  call void @_ZN6google8protobuf8internal10LogMessageD1Ev(ptr noundef nonnull align 8 dereferenceable(56) %4) #12
  resume { ptr, i32 } %32

.loopexit:                                        ; preds = %.critedge, %.critedge21, %29
  %33 = phi i1 [ false, %29 ], [ true, %.critedge21 ], [ %.not32, %.critedge ]
  ret i1 %33
}